target datalayout = "e-m:e-p270:32:32-p271:32:32-p272:64:64-i64:64-i128:128-f80:128-n8:16:32:64-S128"
target triple = "x86_64-pc-linux-gnu"

%struct.encoder_process_data_st = type { ptr, ptr, i32, i32, ptr, i32, ptr, ptr, i64, ptr }
%struct.ossl_encoder_ctx_st = type { i32, ptr, ptr, ptr, ptr, ptr, ptr, %struct.ossl_passphrase_data_st }
%struct.ossl_passphrase_data_st = type { i32, %union.anon, i8, ptr, i64 }
%union.anon = type { %struct.anon }
%struct.anon = type { ptr, i64 }

@.str = private unnamed_addr constant [46 x i8] c"../openssl/crypto/encode_decode/encoder_lib.c\00", align 1
@__func__.OSSL_ENCODER_to_bio = private unnamed_addr constant [20 x i8] c"OSSL_ENCODER_to_bio\00", align 1
@.str.1 = private unnamed_addr constant [141 x i8] c"No encoders were found. For standard encoders you need at least one of the default or base providers available. Did you forget to load them?\00", align 1

; Function Attrs: inlinehint nounwind uwtable
define internal i32 @sk_OSSL_ENCODER_INSTANCE_num(ptr noundef %0) #6 {
  %2 = alloca ptr, align 8
  store ptr %0, ptr %2, align 8, !tbaa !82
  %3 = load ptr, ptr %2, align 8, !tbaa !82
  %4 = call i32 @OPENSSL_sk_num(ptr noundef %3)
  ret i32 %4
}

; Function Attrs: nounwind uwtable
define i32 @OSSL_ENCODER_CTX_get_num_encoders(ptr noundef %0) #0 {
  %2 = alloca i32, align 4
  %3 = alloca ptr, align 8
  store ptr %0, ptr %3, align 8, !tbaa !3
  %4 = load ptr, ptr %3, align 8, !tbaa !3
  %5 = icmp eq ptr %4, null
  br i1 %5, label %11, label %6

6:                                                ; preds = %1
  %7 = load ptr, ptr %3, align 8, !tbaa !3
  %8 = getelementptr inbounds nuw %struct.ossl_encoder_ctx_st, ptr %7, i32 0, i32 3
  %9 = load ptr, ptr %8, align 8, !tbaa !23
  %10 = icmp eq ptr %9, null
  br i1 %10, label %11, label %12

11:                                               ; preds = %6, %1
  store i32 0, ptr %2, align 4
  br label %17

12:                                               ; preds = %6
  %13 = load ptr, ptr %3, align 8, !tbaa !3
  %14 = getelementptr inbounds nuw %struct.ossl_encoder_ctx_st, ptr %13, i32 0, i32 3
  %15 = load ptr, ptr %14, align 8, !tbaa !23
  %16 = call i32 @sk_OSSL_ENCODER_INSTANCE_num(ptr noundef %15)
  store i32 %16, ptr %2, align 4
  br label %17

17:                                               ; preds = %12, %11
  %18 = load i32, ptr %2, align 4
  ret i32 %18
}

; Function Attrs: nounwind uwtable
define i32 @OSSL_ENCODER_to_bio(ptr noundef %0, ptr noundef %1) #0 {
  %3 = alloca i32, align 4
  %4 = alloca ptr, align 8
  %5 = alloca ptr, align 8
  %6 = alloca %struct.encoder_process_data_st, align 8
  %7 = alloca i32, align 4
  store ptr %0, ptr %4, align 8, !tbaa !3
  store ptr %1, ptr %5, align 8, !tbaa !8
  call void @llvm.lifetime.start.p0(i64 72, ptr %6) #8
  call void @llvm.memset.p0.i64(ptr align 8 %6, i8 0, i64 72, i1 false)
  %8 = load ptr, ptr %4, align 8, !tbaa !3
  %9 = getelementptr inbounds nuw %struct.encoder_process_data_st, ptr %6, i32 0, i32 0
  store ptr %8, ptr %9, align 8, !tbaa !10
  %10 = load ptr, ptr %5, align 8, !tbaa !8
  %11 = getelementptr inbounds nuw %struct.encoder_process_data_st, ptr %6, i32 0, i32 1
  store ptr %10, ptr %11, align 8, !tbaa !16
  %12 = load ptr, ptr %4, align 8, !tbaa !3
  %13 = call i32 @OSSL_ENCODER_CTX_get_num_encoders(ptr noundef %12)
  %14 = getelementptr inbounds nuw %struct.encoder_process_data_st, ptr %6, i32 0, i32 2
  store i32 %13, ptr %14, align 8, !tbaa !17
  %15 = getelementptr inbounds nuw %struct.encoder_process_data_st, ptr %6, i32 0, i32 2
  %16 = load i32, ptr %15, align 8, !tbaa !17
  %17 = icmp eq i32 %16, 0
  br i1 %17, label %18, label %19

18:                                               ; preds = %2
  call void @ERR_new()
  call void @ERR_set_debug(ptr noundef @.str, i32 noundef 78, ptr noundef @__func__.OSSL_ENCODER_to_bio)
  call void (i32, i32, ptr, ...) @ERR_set_error(i32 noundef 59, i32 noundef 101, ptr noundef @.str.1)
  store i32 0, ptr %3, align 4
  store i32 1, ptr %7, align 4
  br label %34

19:                                               ; preds = %2
  %20 = load ptr, ptr %4, align 8, !tbaa !3
  %21 = getelementptr inbounds nuw %struct.ossl_encoder_ctx_st, ptr %20, i32 0, i32 5
  %22 = load ptr, ptr %21, align 8, !tbaa !18
  %23 = icmp eq ptr %22, null
  br i1 %23, label %29, label %24

24:                                               ; preds = %19
  %25 = load ptr, ptr %4, align 8, !tbaa !3
  %26 = getelementptr inbounds nuw %struct.ossl_encoder_ctx_st, ptr %25, i32 0, i32 4
  %27 = load ptr, ptr %26, align 8, !tbaa !22
  %28 = icmp eq ptr %27, null
  br i1 %28, label %29, label %30

29:                                               ; preds = %24, %19
  call void @ERR_new()
  call void @ERR_set_debug(ptr noundef @.str, i32 noundef 86, ptr noundef @__func__.OSSL_ENCODER_to_bio)
  call void (i32, i32, ptr, ...) @ERR_set_error(i32 noundef 59, i32 noundef 786693, ptr noundef null)
  store i32 0, ptr %3, align 4
  store i32 1, ptr %7, align 4
  br label %34

30:                                               ; preds = %24
  %31 = call i32 @encoder_process(ptr noundef %6)
  %32 = icmp sgt i32 %31, 0
  %33 = zext i1 %32 to i32
  store i32 %33, ptr %3, align 4
  store i32 1, ptr %7, align 4
  br label %34

34:                                               ; preds = %30, %29, %18
  call void @llvm.lifetime.end.p0(i64 72, ptr %6) #8
  %35 = load i32, ptr %3, align 4
  ret i32 %35
}