; Function Attrs: nounwind uwtable
define range(i32 0, 2) i32 @OSSL_ENCODER_to_bio(ptr noundef %0, ptr noundef %1) local_unnamed_addr #0 {
  %3 = alloca %struct.encoder_process_data_st, align 8
  call void @llvm.lifetime.start.p0(i64 72, ptr nonnull %3) #8
  %4 = getelementptr inbounds nuw i8, ptr %3, i64 16
  call void @llvm.memset.p0.i64(ptr noundef nonnull align 8 dereferenceable(72) %4, i8 0, i64 56, i1 false)
  store ptr %0, ptr %3, align 8, !tbaa !3
  %5 = getelementptr inbounds nuw i8, ptr %3, i64 8
  store ptr %1, ptr %5, align 8, !tbaa !14
  %6 = icmp eq ptr %0, null
  br i1 %6, label %OSSL_ENCODER_CTX_get_num_encoders.exit.thread, label %7

7:                                                ; preds = %2
  %8 = getelementptr inbounds nuw i8, ptr %0, i64 24
  %9 = load ptr, ptr %8, align 8, !tbaa !15
  %10 = icmp eq ptr %9, null
  br i1 %10, label %OSSL_ENCODER_CTX_get_num_encoders.exit.thread, label %OSSL_ENCODER_CTX_get_num_encoders.exit

OSSL_ENCODER_CTX_get_num_encoders.exit:           ; preds = %7
  %11 = tail call i32 @OPENSSL_sk_num(ptr noundef nonnull %9) #8
  %12 = getelementptr inbounds nuw i8, ptr %3, i64 16
  store i32 %11, ptr %12, align 8, !tbaa !19
  %13 = icmp eq i32 %11, 0
  br i1 %13, label %OSSL_ENCODER_CTX_get_num_encoders.exit.thread, label %14

OSSL_ENCODER_CTX_get_num_encoders.exit.thread:    ; preds = %2, %7, %OSSL_ENCODER_CTX_get_num_encoders.exit
  tail call void @ERR_new() #8
  tail call void @ERR_set_debug(ptr noundef nonnull @.str, i32 noundef 78, ptr noundef nonnull @__func__.OSSL_ENCODER_to_bio) #8
  tail call void (i32, i32, ptr, ...) @ERR_set_error(i32 noundef 59, i32 noundef 101, ptr noundef nonnull @.str.1) #8
  br label %27

14:                                               ; preds = %OSSL_ENCODER_CTX_get_num_encoders.exit
  %15 = getelementptr inbounds nuw i8, ptr %0, i64 40
  %16 = load ptr, ptr %15, align 8, !tbaa !20
  %17 = icmp eq ptr %16, null
  br i1 %17, label %22, label %18

18:                                               ; preds = %14
  %19 = getelementptr inbounds nuw i8, ptr %0, i64 32
  %20 = load ptr, ptr %19, align 8, !tbaa !21
  %21 = icmp eq ptr %20, null
  br i1 %21, label %22, label %23

22:                                               ; preds = %18, %14
  tail call void @ERR_new() #8
  tail call void @ERR_set_debug(ptr noundef nonnull @.str, i32 noundef 86, ptr noundef nonnull @__func__.OSSL_ENCODER_to_bio) #8
  tail call void (i32, i32, ptr, ...) @ERR_set_error(i32 noundef 59, i32 noundef 786693, ptr noundef null) #8
  br label %27

23:                                               ; preds = %18
  %24 = call fastcc i32 @encoder_process(ptr noundef %3)
  %25 = icmp sgt i32 %24, 0
  %26 = zext i1 %25 to i32
  br label %27

27:                                               ; preds = %23, %22, %OSSL_ENCODER_CTX_get_num_encoders.exit.thread
  %.0 = phi i32 [ 0, %OSSL_ENCODER_CTX_get_num_encoders.exit.thread ], [ 0, %22 ], [ %26, %23 ]
  call void @llvm.lifetime.end.p0(i64 72, ptr nonnull %3) #8
  ret i32 %.0
}